target datalayout = "e-m:e-p270:32:32-p271:32:32-p272:64:64-i64:64-i128:128-f80:128-n8:16:32:64-S128"
target triple = "x86_64-pc-linux-gnu"

; Function Attrs: mustprogress uwtable
define linkonce_odr hidden noundef nonnull align 8 dereferenceable(64) ptr @_ZN4LIEF4Hash7processINS_5MachO13DataCodeEntry5TYPESEvEERS0_T_(ptr noundef nonnull align 8 dereferenceable(64) %0, i32 noundef %1) #3 comdat align 2 {
  %3 = alloca ptr, align 8
  %4 = alloca i32, align 4
  store ptr %0, ptr %3, align 8
  store i32 %1, ptr %4, align 4
  %5 = load ptr, ptr %3, align 8
  %6 = load i32, ptr %4, align 4
  %7 = sext i32 %6 to i64
  %8 = load ptr, ptr %5, align 8
  %9 = getelementptr inbounds ptr, ptr %8, i64 166
  %10 = load ptr, ptr %9, align 8
  %11 = call noundef nonnull align 8 dereferenceable(64) ptr %10(ptr noundef nonnull align 8 dereferenceable(64) %5, i64 noundef %7)
  ret ptr %11
}

; Function Attrs: mustprogress uwtable
define void @_ZN4LIEF5MachO4Hash5visitERKNS0_13DataCodeEntryE(ptr noundef nonnull align 8 dereferenceable(64) %0, ptr noundef nonnull align 8 dereferenceable(20) %1) unnamed_addr #3 align 2 {
  %3 = alloca ptr, align 8
  %4 = alloca ptr, align 8
  store ptr %0, ptr %3, align 8
  store ptr %1, ptr %4, align 8
  %5 = load ptr, ptr %3, align 8
  %6 = load ptr, ptr %4, align 8
  %7 = call noundef i32 @_ZNK4LIEF5MachO13DataCodeEntry6offsetEv(ptr noundef nonnull align 8 dereferenceable(20) %6)
  %8 = zext i32 %7 to i64
  %9 = load ptr, ptr %5, align 8
  %10 = getelementptr inbounds ptr, ptr %9, i64 166
  %11 = load ptr, ptr %10, align 8
  %12 = call noundef nonnull align 8 dereferenceable(64) ptr %11(ptr noundef nonnull align 8 dereferenceable(64) %5, i64 noundef %8)
  %13 = load ptr, ptr %4, align 8
  %14 = call noundef zeroext i16 @_ZNK4LIEF5MachO13DataCodeEntry6lengthEv(ptr noundef nonnull align 8 dereferenceable(20) %13)
  %15 = zext i16 %14 to i64
  %16 = load ptr, ptr %5, align 8
  %17 = getelementptr inbounds ptr, ptr %16, i64 166
  %18 = load ptr, ptr %17, align 8
  %19 = call noundef nonnull align 8 dereferenceable(64) ptr %18(ptr noundef nonnull align 8 dereferenceable(64) %5, i64 noundef %15)
  %20 = load ptr, ptr %4, align 8
  %21 = call noundef i32 @_ZNK4LIEF5MachO13DataCodeEntry4typeEv(ptr noundef nonnull align 8 dereferenceable(20) %20)
  %22 = call noundef nonnull align 8 dereferenceable(64) ptr @_ZN4LIEF4Hash7processINS_5MachO13DataCodeEntry5TYPESEvEERS0_T_(ptr noundef nonnull align 8 dereferenceable(64) %5, i32 noundef %21)
  ret void
}