; Function Attrs: mustprogress uwtable
define void @_ZN4LIEF5MachO4Hash5visitERKNS0_13DataCodeEntryE(ptr noundef nonnull align 8 dereferenceable(64) %0, ptr noundef nonnull align 8 dereferenceable(20) %1) unnamed_addr #3 align 2 {
  %3 = tail call noundef i32 @_ZNK4LIEF5MachO13DataCodeEntry6offsetEv(ptr noundef nonnull align 8 dereferenceable(20) %1)
  %4 = zext i32 %3 to i64
  %5 = load ptr, ptr %0, align 8
  %6 = getelementptr inbounds i8, ptr %5, i64 1328
  %7 = load ptr, ptr %6, align 8
  %8 = tail call noundef nonnull align 8 dereferenceable(64) ptr %7(ptr noundef nonnull align 8 dereferenceable(64) %0, i64 noundef %4)
  %9 = tail call noundef zeroext i16 @_ZNK4LIEF5MachO13DataCodeEntry6lengthEv(ptr noundef nonnull align 8 dereferenceable(20) %1)
  %10 = zext i16 %9 to i64
  %11 = load ptr, ptr %0, align 8
  %12 = getelementptr inbounds i8, ptr %11, i64 1328
  %13 = load ptr, ptr %12, align 8
  %14 = tail call noundef nonnull align 8 dereferenceable(64) ptr %13(ptr noundef nonnull align 8 dereferenceable(64) %0, i64 noundef %10)
  %15 = tail call noundef i32 @_ZNK4LIEF5MachO13DataCodeEntry4typeEv(ptr noundef nonnull align 8 dereferenceable(20) %1)
  %16 = sext i32 %15 to i64
  %17 = load ptr, ptr %0, align 8
  %18 = getelementptr inbounds i8, ptr %17, i64 1328
  %19 = load ptr, ptr %18, align 8
  %20 = tail call noundef nonnull align 8 dereferenceable(64) ptr %19(ptr noundef nonnull align 8 dereferenceable(64) %0, i64 noundef %16)
  ret void
}